; Function Attrs: mustprogress nofree norecurse nosync nounwind willreturn memory(argmem: read) uwtable
define signext range(i8 0, 2) i8 @uset_isFrozen_77(ptr noundef readonly captures(none) %0) local_unnamed_addr #4 {
  %2 = getelementptr inbounds nuw i8, ptr %0, i64 40
  %3 = load ptr, ptr %2, align 8, !tbaa !3
  %.not.i = icmp ne ptr %3, null
  %4 = getelementptr inbounds nuw i8, ptr %0, i64 88
  %5 = load ptr, ptr %4, align 8
  %6 = icmp ne ptr %5, null
  %narrow.i = select i1 %.not.i, i1 true, i1 %6
  %7 = zext i1 %narrow.i to i8
  ret i8 %7
}